target datalayout = "e-m:e-p270:32:32-p271:32:32-p272:64:64-i64:64-i128:128-f80:128-n8:16:32:64-S128"
target triple = "x86_64-pc-linux-gnu"

%"class.icu_77::double_conversion::Bignum" = type { i16, i16, [128 x i32] }

; Function Attrs: mustprogress nounwind uwtable
define noundef nonnull align 4 dereferenceable(4) ptr @_ZN6icu_7717double_conversion6Bignum8RawBigitEi(ptr noundef nonnull align 4 dereferenceable(516) %0, i32 noundef %1) #0 align 2 {
  %3 = alloca ptr, align 8
  %4 = alloca i32, align 4
  store ptr %0, ptr %3, align 8, !tbaa !3
  store i32 %1, ptr %4, align 4, !tbaa !8
  %5 = load ptr, ptr %3, align 8
  %6 = getelementptr inbounds nuw %"class.icu_77::double_conversion::Bignum", ptr %5, i32 0, i32 2
  %7 = load i32, ptr %4, align 4, !tbaa !8
  %8 = sext i32 %7 to i64
  %9 = getelementptr inbounds [128 x i32], ptr %6, i64 0, i64 %8
  ret ptr %9
}

; Function Attrs: mustprogress nounwind uwtable
define noundef nonnull align 4 dereferenceable(4) ptr @_ZNK6icu_7717double_conversion6Bignum8RawBigitEi(ptr noundef nonnull align 4 dereferenceable(516) %0, i32 noundef %1) #0 align 2 {
  %3 = alloca ptr, align 8
  %4 = alloca i32, align 4
  store ptr %0, ptr %3, align 8, !tbaa !3
  store i32 %1, ptr %4, align 4, !tbaa !8
  %5 = load ptr, ptr %3, align 8
  %6 = getelementptr inbounds nuw %"class.icu_77::double_conversion::Bignum", ptr %5, i32 0, i32 2
  %7 = load i32, ptr %4, align 4, !tbaa !8
  %8 = sext i32 %7 to i64
  %9 = getelementptr inbounds [128 x i32], ptr %6, i64 0, i64 %8
  ret ptr %9
}

; Function Attrs: mustprogress nounwind uwtable
define void @_ZN6icu_7717double_conversion6Bignum12AssignBignumERKS1_(ptr noundef nonnull align 4 dereferenceable(516) %0, ptr noundef nonnull align 4 dereferenceable(516) %1) #0 align 2 {
  %3 = alloca ptr, align 8
  %4 = alloca ptr, align 8
  %5 = alloca i32, align 4
  store ptr %0, ptr %3, align 8, !tbaa !3
  store ptr %1, ptr %4, align 8, !tbaa !3
  %6 = load ptr, ptr %3, align 8
  %7 = load ptr, ptr %4, align 8, !tbaa !3
  %8 = getelementptr inbounds nuw %"class.icu_77::double_conversion::Bignum", ptr %7, i32 0, i32 1
  %9 = load i16, ptr %8, align 2, !tbaa !14
  %10 = getelementptr inbounds nuw %"class.icu_77::double_conversion::Bignum", ptr %6, i32 0, i32 1
  store i16 %9, ptr %10, align 2, !tbaa !14
  call void @llvm.lifetime.start.p0(i64 4, ptr %5) #6
  store i32 0, ptr %5, align 4, !tbaa !8
  br label %11

11:                                               ; preds = %26, %2
  %12 = load i32, ptr %5, align 4, !tbaa !8
  %13 = load ptr, ptr %4, align 8, !tbaa !3
  %14 = getelementptr inbounds nuw %"class.icu_77::double_conversion::Bignum", ptr %13, i32 0, i32 0
  %15 = load i16, ptr %14, align 4, !tbaa !12
  %16 = sext i16 %15 to i32
  %17 = icmp slt i32 %12, %16
  br i1 %17, label %19, label %18

18:                                               ; preds = %11
  call void @llvm.lifetime.end.p0(i64 4, ptr %5) #6
  br label %29

19:                                               ; preds = %11
  %20 = load ptr, ptr %4, align 8, !tbaa !3
  %21 = load i32, ptr %5, align 4, !tbaa !8
  %22 = call noundef nonnull align 4 dereferenceable(4) ptr @_ZNK6icu_7717double_conversion6Bignum8RawBigitEi(ptr noundef nonnull align 4 dereferenceable(516) %20, i32 noundef %21)
  %23 = load i32, ptr %22, align 4, !tbaa !8
  %24 = load i32, ptr %5, align 4, !tbaa !8
  %25 = call noundef nonnull align 4 dereferenceable(4) ptr @_ZN6icu_7717double_conversion6Bignum8RawBigitEi(ptr noundef nonnull align 4 dereferenceable(516) %6, i32 noundef %24)
  store i32 %23, ptr %25, align 4, !tbaa !8
  br label %26

26:                                               ; preds = %19
  %27 = load i32, ptr %5, align 4, !tbaa !8
  %28 = add nsw i32 %27, 1
  store i32 %28, ptr %5, align 4, !tbaa !8
  br label %11, !llvm.loop !19

29:                                               ; preds = %18
  %30 = load ptr, ptr %4, align 8, !tbaa !3
  %31 = getelementptr inbounds nuw %"class.icu_77::double_conversion::Bignum", ptr %30, i32 0, i32 0
  %32 = load i16, ptr %31, align 4, !tbaa !12
  %33 = getelementptr inbounds nuw %"class.icu_77::double_conversion::Bignum", ptr %6, i32 0, i32 0
  store i16 %32, ptr %33, align 4, !tbaa !12
  ret void
}